target datalayout = "e-m:e-p270:32:32-p271:32:32-p272:64:64-i64:64-i128:128-f80:128-n8:16:32:64-S128"
target triple = "x86_64-unknown-linux-gnu"

%"class.rocksdb::Slice" = type { ptr, i64 }
%"class.rocksdb::Customizable" = type { %"class.rocksdb::Configurable" }
%"class.rocksdb::Configurable" = type { ptr, %"class.std::vector.19" }
%"class.std::vector.19" = type { %"struct.std::_Vector_base.20" }
%"struct.std::_Vector_base.20" = type { %"struct.std::_Vector_base<rocksdb::Configurable::RegisteredOptions, std::allocator<rocksdb::Configurable::RegisteredOptions>>::_Vector_impl" }
%"struct.std::_Vector_base<rocksdb::Configurable::RegisteredOptions, std::allocator<rocksdb::Configurable::RegisteredOptions>>::_Vector_impl" = type { %"struct.std::_Vector_base<rocksdb::Configurable::RegisteredOptions, std::allocator<rocksdb::Configurable::RegisteredOptions>>::_Vector_impl_data" }
%"struct.std::_Vector_base<rocksdb::Configurable::RegisteredOptions, std::allocator<rocksdb::Configurable::RegisteredOptions>>::_Vector_impl_data" = type { ptr, ptr, ptr }
%"class.std::__shared_count" = type { ptr }
%"class.rocksdb::Status" = type { i8, i8, i8, i8, i8, i8, %"class.std::unique_ptr" }
%"class.std::unique_ptr" = type { %"struct.std::__uniq_ptr_data" }
%"struct.std::__uniq_ptr_data" = type { %"class.std::__uniq_ptr_impl" }
%"class.std::__uniq_ptr_impl" = type { %"class.std::tuple" }
%"class.std::tuple" = type { %"struct.std::_Tuple_impl" }
%"struct.std::_Tuple_impl" = type { %"struct.std::_Head_base.25" }
%"struct.std::_Head_base.25" = type { ptr }
%"class.std::shared_ptr.96" = type { %"class.std::__shared_ptr.97" }
%"class.std::__shared_ptr.97" = type { ptr, %"class.std::__shared_count" }
%"class.rocksdb::TtlCompactionFilterFactory" = type { %"class.rocksdb::CompactionFilterFactory", i32, ptr, %"class.std::shared_ptr.96" }
%"class.rocksdb::CompactionFilterFactory" = type { %"class.rocksdb::Customizable" }

@.str.21 = private unnamed_addr constant [51 x i8] c"SystemClock required by TtlCompactionFilterFactory\00", align 1
@.str.27 = private unnamed_addr constant [1 x i8] zeroinitializer, align 1

; Function Attrs: mustprogress uwtable
define linkonce_odr void @_ZN7rocksdb6StatusC2ENS0_4CodeERKNS_5SliceES4_(ptr noundef nonnull align 8 dereferenceable(16) %this, i8 noundef zeroext %_code, ptr noundef nonnull align 8 dereferenceable(16) %msg, ptr noundef nonnull align 8 dereferenceable(16) %msg2) unnamed_addr #0 comdat align 2 {
entry:
  %this.addr = alloca ptr, align 8
  %_code.addr = alloca i8, align 1
  %msg.addr = alloca ptr, align 8
  %msg2.addr = alloca ptr, align 8
  store ptr %this, ptr %this.addr, align 8
  store i8 %_code, ptr %_code.addr, align 1
  store ptr %msg, ptr %msg.addr, align 8
  store ptr %msg2, ptr %msg2.addr, align 8
  %this1 = load ptr, ptr %this.addr, align 8
  %0 = load i8, ptr %_code.addr, align 1
  %1 = load ptr, ptr %msg.addr, align 8
  %2 = load ptr, ptr %msg2.addr, align 8
  call void @_ZN7rocksdb6StatusC2ENS0_4CodeENS0_7SubCodeERKNS_5SliceES5_NS0_8SeverityE(ptr noundef nonnull align 8 dereferenceable(16) %this1, i8 noundef zeroext %0, i8 noundef zeroext 0, ptr noundef nonnull align 8 dereferenceable(16) %1, ptr noundef nonnull align 8 dereferenceable(16) %2, i8 noundef zeroext 0)
  ret void
}

; Function Attrs: mustprogress uwtable
define linkonce_odr void @_ZN7rocksdb6Status15InvalidArgumentERKNS_5SliceES3_(ptr noalias sret(%"class.rocksdb::Status") align 8 %agg.result, ptr noundef nonnull align 8 dereferenceable(16) %msg, ptr noundef nonnull align 8 dereferenceable(16) %msg2) #0 comdat align 2 {
entry:
  %result.ptr = alloca ptr, align 8
  %msg.addr = alloca ptr, align 8
  %msg2.addr = alloca ptr, align 8
  store ptr %agg.result, ptr %result.ptr, align 8
  store ptr %msg, ptr %msg.addr, align 8
  store ptr %msg2, ptr %msg2.addr, align 8
  %0 = load ptr, ptr %msg.addr, align 8
  %1 = load ptr, ptr %msg2.addr, align 8
  call void @_ZN7rocksdb6StatusC2ENS0_4CodeERKNS_5SliceES4_(ptr noundef nonnull align 8 dereferenceable(16) %agg.result, i8 noundef zeroext 4, ptr noundef nonnull align 8 dereferenceable(16) %0, ptr noundef nonnull align 8 dereferenceable(16) %1)
  ret void
}

; Function Attrs: mustprogress nounwind uwtable
define linkonce_odr void @_ZN7rocksdb5SliceC2Ev(ptr noundef nonnull align 8 dereferenceable(16) %this) unnamed_addr #1 comdat align 2 {
entry:
  %this.addr = alloca ptr, align 8
  store ptr %this, ptr %this.addr, align 8
  %this1 = load ptr, ptr %this.addr, align 8
  %data_ = getelementptr inbounds %"class.rocksdb::Slice", ptr %this1, i32 0, i32 0
  store ptr @.str.27, ptr %data_, align 8
  %size_ = getelementptr inbounds %"class.rocksdb::Slice", ptr %this1, i32 0, i32 1
  store i64 0, ptr %size_, align 8
  ret void
}

; Function Attrs: mustprogress nounwind uwtable
define linkonce_odr void @_ZN7rocksdb5SliceC2EPKc(ptr noundef nonnull align 8 dereferenceable(16) %this, ptr noundef %s) unnamed_addr #1 comdat align 2 {
entry:
  %this.addr = alloca ptr, align 8
  %s.addr = alloca ptr, align 8
  store ptr %this, ptr %this.addr, align 8
  store ptr %s, ptr %s.addr, align 8
  %this1 = load ptr, ptr %this.addr, align 8
  %data_ = getelementptr inbounds %"class.rocksdb::Slice", ptr %this1, i32 0, i32 0
  %0 = load ptr, ptr %s.addr, align 8
  store ptr %0, ptr %data_, align 8
  %1 = load ptr, ptr %s.addr, align 8
  %cmp = icmp eq ptr %1, null
  br i1 %cmp, label %cond.true, label %cond.false

cond.true:                                        ; preds = %entry
  br label %cond.end

cond.false:                                       ; preds = %entry
  %2 = load ptr, ptr %s.addr, align 8
  %call = call i64 @strlen(ptr noundef %2) #18
  br label %cond.end

cond.end:                                         ; preds = %cond.false, %cond.true
  %cond = phi i64 [ 0, %cond.true ], [ %call, %cond.false ]
  %size_ = getelementptr inbounds %"class.rocksdb::Slice", ptr %this1, i32 0, i32 1
  store i64 %cond, ptr %size_, align 8
  ret void
}

; Function Attrs: mustprogress uwtable
define void @_ZNK7rocksdb26TtlCompactionFilterFactory15ValidateOptionsERKNS_9DBOptionsERKNS_19ColumnFamilyOptionsE(ptr noalias sret(%"class.rocksdb::Status") align 8 %agg.result, ptr noundef nonnull align 8 dereferenceable(64) %this, ptr noundef nonnull align 8 dereferenceable(688) %db_opts, ptr noundef nonnull align 8 dereferenceable(820) %cf_opts) unnamed_addr #0 align 2 {
entry:
  %result.ptr = alloca ptr, align 8
  %this.addr = alloca ptr, align 8
  %db_opts.addr = alloca ptr, align 8
  %cf_opts.addr = alloca ptr, align 8
  %ref.tmp = alloca %"class.rocksdb::Slice", align 8
  %ref.tmp2 = alloca %"class.rocksdb::Slice", align 8
  store ptr %agg.result, ptr %result.ptr, align 8
  store ptr %this, ptr %this.addr, align 8
  store ptr %db_opts, ptr %db_opts.addr, align 8
  store ptr %cf_opts, ptr %cf_opts.addr, align 8
  %this1 = load ptr, ptr %this.addr, align 8
  %clock_ = getelementptr inbounds %"class.rocksdb::TtlCompactionFilterFactory", ptr %this1, i32 0, i32 2
  %0 = load ptr, ptr %clock_, align 8
  %cmp = icmp eq ptr %0, null
  br i1 %cmp, label %if.then, label %if.else

if.then:                                          ; preds = %entry
  call void @_ZN7rocksdb5SliceC2EPKc(ptr noundef nonnull align 8 dereferenceable(16) %ref.tmp, ptr noundef @.str.21)
  call void @_ZN7rocksdb5SliceC2Ev(ptr noundef nonnull align 8 dereferenceable(16) %ref.tmp2)
  call void @_ZN7rocksdb6Status15InvalidArgumentERKNS_5SliceES3_(ptr sret(%"class.rocksdb::Status") align 8 %agg.result, ptr noundef nonnull align 8 dereferenceable(16) %ref.tmp, ptr noundef nonnull align 8 dereferenceable(16) %ref.tmp2)
  br label %return

if.else:                                          ; preds = %entry
  %1 = load ptr, ptr %db_opts.addr, align 8
  %2 = load ptr, ptr %cf_opts.addr, align 8
  call void @_ZNK7rocksdb12Configurable15ValidateOptionsERKNS_9DBOptionsERKNS_19ColumnFamilyOptionsE(ptr sret(%"class.rocksdb::Status") align 8 %agg.result, ptr noundef nonnull align 8 dereferenceable(32) %this1, ptr noundef nonnull align 8 dereferenceable(688) %1, ptr noundef nonnull align 8 dereferenceable(820) %2)
  br label %return

return:                                           ; preds = %if.else, %if.then
  ret void
}